; Function Attrs: mustprogress nofree norecurse nosync nounwind willreturn memory(readwrite, inaccessiblemem: none) uwtable
define hidden noundef nonnull align 8 dereferenceable(8) ptr @_ZN4cvc58internal7IntStatppEi(ptr noundef nonnull readonly returned align 8 dereferenceable(8) %this, i32 noundef %0) local_unnamed_addr #0 align 2 {
entry:
  %1 = load ptr, ptr %this, align 8
  %d_value = getelementptr inbounds nuw i8, ptr %1, i64 16
  %2 = load i64, ptr %d_value, align 8
  %inc = add nsw i64 %2, 1
  store i64 %inc, ptr %d_value, align 8
  ret ptr %this
}